target datalayout = "e-m:e-p270:32:32-p271:32:32-p272:64:64-i64:64-i128:128-f80:128-n8:16:32:64-S128"
target triple = "x86_64-pc-linux-gnu"

@max_prepared_xacts = dso_local global i32 0, align 4

; Function Attrs: nounwind uwtable
define dso_local i64 @TwoPhaseShmemSize() #0 {
  %1 = alloca i64, align 8
  call void @llvm.lifetime.start.p0(i64 8, ptr %1) #12
  store i64 16, ptr %1, align 8
  %2 = load i64, ptr %1, align 8
  %3 = load i32, ptr @max_prepared_xacts, align 4
  %4 = sext i32 %3 to i64
  %5 = call i64 @mul_size(i64 noundef %4, i64 noundef 8)
  %6 = call i64 @add_size(i64 noundef %2, i64 noundef %5)
  store i64 %6, ptr %1, align 8
  %7 = load i64, ptr %1, align 8
  %8 = add i64 %7, 7
  %9 = and i64 %8, -8
  store i64 %9, ptr %1, align 8
  %10 = load i64, ptr %1, align 8
  %11 = load i32, ptr @max_prepared_xacts, align 4
  %12 = sext i32 %11 to i64
  %13 = call i64 @mul_size(i64 noundef %12, i64 noundef 256)
  %14 = call i64 @add_size(i64 noundef %10, i64 noundef %13)
  store i64 %14, ptr %1, align 8
  %15 = load i64, ptr %1, align 8
  call void @llvm.lifetime.end.p0(i64 8, ptr %1) #12
  ret i64 %15
}