; Function Attrs: nounwind uwtable
define dso_local i64 @TwoPhaseShmemSize() local_unnamed_addr #0 {
  %1 = load i32, ptr @max_prepared_xacts, align 4
  %2 = sext i32 %1 to i64
  %3 = tail call i64 @mul_size(i64 noundef %2, i64 noundef 8) #14
  %4 = tail call i64 @add_size(i64 noundef 16, i64 noundef %3) #14
  %5 = add i64 %4, 7
  %6 = and i64 %5, -8
  %7 = load i32, ptr @max_prepared_xacts, align 4
  %8 = sext i32 %7 to i64
  %9 = tail call i64 @mul_size(i64 noundef %8, i64 noundef 256) #14
  %10 = tail call i64 @add_size(i64 noundef %6, i64 noundef %9) #14
  ret i64 %10
}